target datalayout = "e-m:e-p270:32:32-p271:32:32-p272:64:64-i64:64-i128:128-f80:128-n8:16:32:64-S128"
target triple = "x86_64-unknown-linux-gnu"

%"class.zmq::mechanism_base_t" = type { %"class.zmq::mechanism_t", ptr }
%"class.zmq::mechanism_t" = type { ptr, %"struct.zmq::options_t", %"class.std::map", %"class.std::map", %"struct.zmq::blob_t", %"struct.zmq::blob_t" }
%"struct.zmq::options_t" = type { i32, i32, i64, i8, [256 x i8], i32, i32, i32, i32, i32, i32, i32, i32, i8, %"struct.zmq::atomic_value_t", i32, i32, i32, i32, i32, i32, i64, i32, i32, i8, i32, i8, i8, i8, i8, i8, %"class.std::__cxx11::basic_string", %"class.std::__cxx11::basic_string", %"class.std::__cxx11::basic_string", i32, i32, i32, i32, %"class.std::vector", %"class.std::set", %"class.std::set", %"class.std::set.6", i32, i32, %"class.std::__cxx11::basic_string", %"class.std::__cxx11::basic_string", %"class.std::__cxx11::basic_string", [32 x i8], [32 x i8], [32 x i8], %"class.std::__cxx11::basic_string", %"class.std::__cxx11::basic_string", i32, i32, i8, i32, i8, i32, i8, i16, i32, i32, i32, %"class.std::__cxx11::basic_string", i8, i8, i8, i32, i32, i8, i32, %"class.std::map", i32, %"class.std::__cxx11::basic_string", %"class.std::__cxx11::basic_string", %"class.std::__cxx11::basic_string", %"class.std::__cxx11::basic_string", i8, %"class.std::vector.21", i8, %"class.std::vector.21", i8, %"class.std::vector.21", i8, i32, i8, i32, i32, i32, i32, i32, i8, i32 }
%"struct.zmq::atomic_value_t" = type { %"struct.std::atomic" }
%"struct.std::atomic" = type { %"struct.std::__atomic_base" }
%"struct.std::__atomic_base" = type { i32 }
%"class.std::vector" = type { %"struct.std::_Vector_base" }
%"struct.std::_Vector_base" = type { %"struct.std::_Vector_base<zmq::tcp_address_mask_t, std::allocator<zmq::tcp_address_mask_t>>::_Vector_impl" }
%"struct.std::_Vector_base<zmq::tcp_address_mask_t, std::allocator<zmq::tcp_address_mask_t>>::_Vector_impl" = type { %"struct.std::_Vector_base<zmq::tcp_address_mask_t, std::allocator<zmq::tcp_address_mask_t>>::_Vector_impl_data" }
%"struct.std::_Vector_base<zmq::tcp_address_mask_t, std::allocator<zmq::tcp_address_mask_t>>::_Vector_impl_data" = type { ptr, ptr, ptr }
%"class.std::set" = type { %"class.std::_Rb_tree" }
%"class.std::_Rb_tree" = type { %"struct.std::_Rb_tree<unsigned int, unsigned int, std::_Identity<unsigned int>, std::less<unsigned int>>::_Rb_tree_impl" }
%"struct.std::_Rb_tree<unsigned int, unsigned int, std::_Identity<unsigned int>, std::less<unsigned int>>::_Rb_tree_impl" = type { %"struct.std::_Rb_tree_key_compare", %"struct.std::_Rb_tree_header" }
%"struct.std::_Rb_tree_key_compare" = type { %"struct.std::less" }
%"struct.std::less" = type { i8 }
%"struct.std::_Rb_tree_header" = type { %"struct.std::_Rb_tree_node_base", i64 }
%"struct.std::_Rb_tree_node_base" = type { i32, ptr, ptr, ptr }
%"class.std::set.6" = type { %"class.std::_Rb_tree.7" }
%"class.std::_Rb_tree.7" = type { %"struct.std::_Rb_tree<int, int, std::_Identity<int>, std::less<int>>::_Rb_tree_impl" }
%"struct.std::_Rb_tree<int, int, std::_Identity<int>, std::less<int>>::_Rb_tree_impl" = type { %"struct.std::_Rb_tree_key_compare.11", %"struct.std::_Rb_tree_header" }
%"struct.std::_Rb_tree_key_compare.11" = type { %"struct.std::less.12" }
%"struct.std::less.12" = type { i8 }
%"class.std::__cxx11::basic_string" = type { %"struct.std::__cxx11::basic_string<char>::_Alloc_hider", i64, %union.anon }
%"struct.std::__cxx11::basic_string<char>::_Alloc_hider" = type { ptr }
%union.anon = type { i64, [8 x i8] }
%"class.std::vector.21" = type { %"struct.std::_Vector_base.22" }
%"struct.std::_Vector_base.22" = type { %"struct.std::_Vector_base<unsigned char, std::allocator<unsigned char>>::_Vector_impl" }
%"struct.std::_Vector_base<unsigned char, std::allocator<unsigned char>>::_Vector_impl" = type { %"struct.std::_Vector_base<unsigned char, std::allocator<unsigned char>>::_Vector_impl_data" }
%"struct.std::_Vector_base<unsigned char, std::allocator<unsigned char>>::_Vector_impl_data" = type { ptr, ptr, ptr }
%"class.std::map" = type { %"class.std::_Rb_tree.14" }
%"class.std::_Rb_tree.14" = type { %"struct.std::_Rb_tree<std::__cxx11::basic_string<char>, std::pair<const std::__cxx11::basic_string<char>, std::__cxx11::basic_string<char>>, std::_Select1st<std::pair<const std::__cxx11::basic_string<char>, std::__cxx11::basic_string<char>>>, std::less<std::__cxx11::basic_string<char>>>::_Rb_tree_impl" }
%"struct.std::_Rb_tree<std::__cxx11::basic_string<char>, std::pair<const std::__cxx11::basic_string<char>, std::__cxx11::basic_string<char>>, std::_Select1st<std::pair<const std::__cxx11::basic_string<char>, std::__cxx11::basic_string<char>>>, std::less<std::__cxx11::basic_string<char>>>::_Rb_tree_impl" = type { %"struct.std::_Rb_tree_key_compare.18", %"struct.std::_Rb_tree_header" }
%"struct.std::_Rb_tree_key_compare.18" = type { %"struct.std::less.19" }
%"struct.std::less.19" = type { i8 }
%"struct.zmq::blob_t" = type <{ ptr, i64, i8, [7 x i8] }>

; Function Attrs: mustprogress uwtable
define void @_ZN3zmq16mechanism_base_t19handle_error_reasonEPKcm(ptr noundef nonnull align 8 dereferenceable(1496) %this, ptr noundef %error_reason_, i64 noundef %error_reason_len_) #0 align 2 {
entry:
  %this.addr = alloca ptr, align 8
  %error_reason_.addr = alloca ptr, align 8
  %error_reason_len_.addr = alloca i64, align 8
  %status_code_len = alloca i64, align 8
  %zero_digit = alloca i8, align 1
  %significant_digit_index = alloca i64, align 8
  %first_zero_digit_index = alloca i64, align 8
  %second_zero_digit_index = alloca i64, align 8
  %factor = alloca i32, align 4
  store ptr %this, ptr %this.addr, align 8
  store ptr %error_reason_, ptr %error_reason_.addr, align 8
  store i64 %error_reason_len_, ptr %error_reason_len_.addr, align 8
  %this1 = load ptr, ptr %this.addr, align 8
  store i64 3, ptr %status_code_len, align 8
  store i8 48, ptr %zero_digit, align 1
  store i64 0, ptr %significant_digit_index, align 8
  store i64 1, ptr %first_zero_digit_index, align 8
  store i64 2, ptr %second_zero_digit_index, align 8
  store i32 100, ptr %factor, align 4
  %0 = load i64, ptr %error_reason_len_.addr, align 8
  %cmp = icmp eq i64 %0, 3
  br i1 %cmp, label %land.lhs.true, label %if.else

land.lhs.true:                                    ; preds = %entry
  %1 = load ptr, ptr %error_reason_.addr, align 8
  %arrayidx = getelementptr inbounds i8, ptr %1, i64 1
  %2 = load i8, ptr %arrayidx, align 1
  %conv = sext i8 %2 to i32
  %cmp2 = icmp eq i32 %conv, 48
  br i1 %cmp2, label %land.lhs.true3, label %if.else

land.lhs.true3:                                   ; preds = %land.lhs.true
  %3 = load ptr, ptr %error_reason_.addr, align 8
  %arrayidx4 = getelementptr inbounds i8, ptr %3, i64 2
  %4 = load i8, ptr %arrayidx4, align 1
  %conv5 = sext i8 %4 to i32
  %cmp6 = icmp eq i32 %conv5, 48
  br i1 %cmp6, label %land.lhs.true7, label %if.else

land.lhs.true7:                                   ; preds = %land.lhs.true3
  %5 = load ptr, ptr %error_reason_.addr, align 8
  %arrayidx8 = getelementptr inbounds i8, ptr %5, i64 0
  %6 = load i8, ptr %arrayidx8, align 1
  %conv9 = sext i8 %6 to i32
  %cmp10 = icmp sge i32 %conv9, 51
  br i1 %cmp10, label %land.lhs.true11, label %if.else

land.lhs.true11:                                  ; preds = %land.lhs.true7
  %7 = load ptr, ptr %error_reason_.addr, align 8
  %arrayidx12 = getelementptr inbounds i8, ptr %7, i64 0
  %8 = load i8, ptr %arrayidx12, align 1
  %conv13 = sext i8 %8 to i32
  %cmp14 = icmp sle i32 %conv13, 53
  br i1 %cmp14, label %if.then, label %if.else

if.then:                                          ; preds = %land.lhs.true11
  %session = getelementptr inbounds %"class.zmq::mechanism_base_t", ptr %this1, i32 0, i32 1
  %9 = load ptr, ptr %session, align 8
  %call = call noundef ptr @_ZNK3zmq14session_base_t10get_socketEv(ptr noundef nonnull align 8 dereferenceable(1624) %9)
  %session15 = getelementptr inbounds %"class.zmq::mechanism_base_t", ptr %this1, i32 0, i32 1
  %10 = load ptr, ptr %session15, align 8
  %call16 = call noundef nonnull align 8 dereferenceable(68) ptr @_ZNK3zmq14session_base_t12get_endpointEv(ptr noundef nonnull align 8 dereferenceable(1624) %10)
  %11 = load ptr, ptr %error_reason_.addr, align 8
  %arrayidx17 = getelementptr inbounds i8, ptr %11, i64 0
  %12 = load i8, ptr %arrayidx17, align 1
  %conv18 = sext i8 %12 to i32
  %sub = sub nsw i32 %conv18, 48
  %mul = mul nsw i32 %sub, 100
  call void @_ZN3zmq13socket_base_t27event_handshake_failed_authERKNS_19endpoint_uri_pair_tEi(ptr noundef nonnull align 8 dereferenceable(1825) %call, ptr noundef nonnull align 8 dereferenceable(68) %call16, i32 noundef %mul)
  br label %if.end

if.else:                                          ; preds = %land.lhs.true11, %land.lhs.true7, %land.lhs.true3, %land.lhs.true, %entry
  br label %if.end

if.end:                                           ; preds = %if.else, %if.then
  ret void
}