; Function Attrs: mustprogress uwtable
define void @_ZN3zmq16mechanism_base_t19handle_error_reasonEPKcm(ptr nocapture noundef nonnull readonly align 8 dereferenceable(1496) %this, ptr nocapture noundef readonly %error_reason_, i64 noundef %error_reason_len_) local_unnamed_addr #0 align 2 {
entry:
  %cmp = icmp eq i64 %error_reason_len_, 3
  br i1 %cmp, label %land.lhs.true, label %if.end

land.lhs.true:                                    ; preds = %entry
  %arrayidx = getelementptr inbounds i8, ptr %error_reason_, i64 1
  %0 = load i8, ptr %arrayidx, align 1
  %cmp2 = icmp eq i8 %0, 48
  br i1 %cmp2, label %land.lhs.true3, label %if.end

land.lhs.true3:                                   ; preds = %land.lhs.true
  %arrayidx4 = getelementptr inbounds i8, ptr %error_reason_, i64 2
  %1 = load i8, ptr %arrayidx4, align 1
  %cmp6 = icmp eq i8 %1, 48
  br i1 %cmp6, label %land.lhs.true7, label %if.end

land.lhs.true7:                                   ; preds = %land.lhs.true3
  %2 = load i8, ptr %error_reason_, align 1
  %3 = add i8 %2, -51
  %or.cond = icmp ult i8 %3, 3
  br i1 %or.cond, label %if.then, label %if.end

if.then:                                          ; preds = %land.lhs.true7
  %session = getelementptr inbounds i8, ptr %this, i64 1488
  %4 = load ptr, ptr %session, align 8
  %call = tail call noundef ptr @_ZNK3zmq14session_base_t10get_socketEv(ptr noundef nonnull align 8 dereferenceable(1624) %4)
  %5 = load ptr, ptr %session, align 8
  %call16 = tail call noundef nonnull align 8 dereferenceable(68) ptr @_ZNK3zmq14session_base_t12get_endpointEv(ptr noundef nonnull align 8 dereferenceable(1624) %5)
  %6 = load i8, ptr %error_reason_, align 1
  %conv18 = sext i8 %6 to i32
  %7 = mul nsw i32 %conv18, 100
  %mul = add nsw i32 %7, -4800
  tail call void @_ZN3zmq13socket_base_t27event_handshake_failed_authERKNS_19endpoint_uri_pair_tEi(ptr noundef nonnull align 8 dereferenceable(1825) %call, ptr noundef nonnull align 8 dereferenceable(68) %call16, i32 noundef %mul)
  br label %if.end

if.end:                                           ; preds = %entry, %land.lhs.true, %land.lhs.true3, %land.lhs.true7, %if.then
  ret void
}